target datalayout = "e-m:e-p270:32:32-p271:32:32-p272:64:64-i64:64-i128:128-f80:128-n8:16:32:64-S128"
target triple = "x86_64-pc-linux-gnu"

%struct.Ast_ = type { %union.SourceSpan, i32, i8, %union.anon.58 }
%union.SourceSpan = type { i64 }
%union.anon.58 = type { %struct.AstDocDirective_ }
%struct.AstDocDirective_ = type { i8, %union.anon.61 }
%union.anon.61 = type { %struct.anon.62 }
%struct.anon.62 = type { ptr, %union.SourceSpan, i8 }
%struct.Vmem = type { ptr, i64, i64 }
%struct.AstCompoundStmt = type { i32 }
%struct.AstReturnStmt = type { ptr, i32, i32, ptr }

@ast_arena = external global %struct.Vmem, align 8

; Function Attrs: nounwind uwtable
define internal ptr @astptr(i32 noundef %0) #0 {
  %2 = alloca i32, align 4
  store i32 %0, ptr %2, align 4
  %3 = load ptr, ptr @ast_arena, align 8
  %4 = load i32, ptr %2, align 4
  %5 = zext i32 %4 to i64
  %6 = getelementptr inbounds %struct.Ast_, ptr %3, i64 %5
  ret ptr %6
}

; Function Attrs: nounwind uwtable
define dso_local zeroext i1 @ast_is_compile_time(ptr noundef %0) #0 {
  %2 = alloca ptr, align 8
  %3 = alloca ptr, align 8
  %4 = alloca i1, align 1
  %5 = alloca ptr, align 8
  %6 = alloca i32, align 4
  store ptr %0, ptr %5, align 8
  %7 = load ptr, ptr %5, align 8
  %8 = getelementptr inbounds %struct.Ast_, ptr %7, i32 0, i32 2
  %9 = load i8, ptr %8, align 4
  %10 = zext i8 %9 to i32
  switch i32 %10, label %51 [
    i32 24, label %11
    i32 25, label %12
    i32 26, label %12
    i32 19, label %25
    i32 6, label %30
  ]

11:                                               ; preds = %1
  store i1 true, ptr %4, align 1
  br label %52

12:                                               ; preds = %1, %1
  %13 = load ptr, ptr %5, align 8
  %14 = getelementptr inbounds %struct.Ast_, ptr %13, i32 0, i32 3
  %15 = getelementptr inbounds %struct.AstReturnStmt, ptr %14, i32 0, i32 0
  %16 = load ptr, ptr %15, align 8
  %17 = icmp ne ptr %16, null
  br i1 %17, label %19, label %18

18:                                               ; preds = %12
  store i1 true, ptr %4, align 1
  br label %52

19:                                               ; preds = %12
  %20 = load ptr, ptr %5, align 8
  %21 = getelementptr inbounds %struct.Ast_, ptr %20, i32 0, i32 3
  %22 = getelementptr inbounds %struct.AstReturnStmt, ptr %21, i32 0, i32 0
  %23 = load ptr, ptr %22, align 8
  %24 = call zeroext i1 @expr_is_constant_eval(ptr noundef %23, i32 noundef 3)
  store i1 %24, ptr %4, align 1
  br label %52

25:                                               ; preds = %1
  %26 = load ptr, ptr %5, align 8
  %27 = getelementptr inbounds %struct.Ast_, ptr %26, i32 0, i32 3
  %28 = load ptr, ptr %27, align 8
  %29 = call zeroext i1 @expr_is_compile_time(ptr noundef %28)
  store i1 %29, ptr %4, align 1
  br label %52

30:                                               ; preds = %1
  %31 = load ptr, ptr %5, align 8
  %32 = getelementptr inbounds %struct.Ast_, ptr %31, i32 0, i32 3
  %33 = getelementptr inbounds %struct.AstCompoundStmt, ptr %32, i32 0, i32 0
  %34 = load i32, ptr %33, align 8
  store i32 %34, ptr %6, align 4
  br label %35

35:                                               ; preds = %49, %30
  %36 = load i32, ptr %6, align 4
  %37 = icmp ne i32 %36, 0
  br i1 %37, label %38, label %50

38:                                               ; preds = %35
  store ptr %6, ptr %2, align 8
  %39 = load ptr, ptr %2, align 8
  %40 = load i32, ptr %39, align 4
  %41 = call ptr @astptr(i32 noundef %40)
  store ptr %41, ptr %3, align 8
  %42 = load ptr, ptr %3, align 8
  %43 = getelementptr inbounds %struct.Ast_, ptr %42, i32 0, i32 1
  %44 = load i32, ptr %43, align 8
  %45 = load ptr, ptr %2, align 8
  store i32 %44, ptr %45, align 4
  %46 = load ptr, ptr %3, align 8
  %47 = call zeroext i1 @ast_is_compile_time(ptr noundef %46)
  br i1 %47, label %49, label %48

48:                                               ; preds = %38
  store i1 false, ptr %4, align 1
  br label %52

49:                                               ; preds = %38
  br label %35, !llvm.loop !15

50:                                               ; preds = %35
  store i1 true, ptr %4, align 1
  br label %52

51:                                               ; preds = %1
  store i1 false, ptr %4, align 1
  br label %52

52:                                               ; preds = %51, %50, %48, %25, %19, %18, %11
  %53 = load i1, ptr %4, align 1
  ret i1 %53
}