; Function Attrs: nounwind uwtable
define dso_local zeroext i1 @ast_is_compile_time(ptr nocapture noundef readonly %0) local_unnamed_addr #0 {
  %2 = getelementptr inbounds i8, ptr %0, i64 12
  %3 = load i8, ptr %2, align 4
  switch i8 %3, label %24 [
    i8 24, label %.loopexit
    i8 25, label %4
    i8 26, label %4
    i8 19, label %9
    i8 6, label %13
  ]

4:                                                ; preds = %1, %1
  %5 = getelementptr inbounds i8, ptr %0, i64 16
  %6 = load ptr, ptr %5, align 8
  %.not13 = icmp eq ptr %6, null
  br i1 %.not13, label %.loopexit, label %7

7:                                                ; preds = %4
  %8 = tail call zeroext i1 @expr_is_constant_eval(ptr noundef nonnull %6, i32 noundef 3) #9
  br label %.loopexit

9:                                                ; preds = %1
  %10 = getelementptr inbounds i8, ptr %0, i64 16
  %11 = load ptr, ptr %10, align 8
  %12 = tail call zeroext i1 @expr_is_compile_time(ptr noundef %11) #9
  br label %.loopexit

13:                                               ; preds = %1
  %14 = getelementptr inbounds i8, ptr %0, i64 16
  %15 = load i32, ptr %14, align 8
  br label %16

16:                                               ; preds = %17, %13
  %.011 = phi i32 [ %15, %13 ], [ %22, %17 ]
  %.not = icmp eq i32 %.011, 0
  br i1 %.not, label %.loopexit, label %17

17:                                               ; preds = %16
  %18 = load ptr, ptr @ast_arena, align 8
  %19 = zext i32 %.011 to i64
  %20 = getelementptr inbounds %struct.Ast_, ptr %18, i64 %19
  %21 = getelementptr inbounds i8, ptr %20, i64 8
  %22 = load i32, ptr %21, align 8
  %23 = tail call zeroext i1 @ast_is_compile_time(ptr noundef nonnull %20)
  br i1 %23, label %16, label %.loopexit, !llvm.loop !15

24:                                               ; preds = %1
  br label %.loopexit

.loopexit:                                        ; preds = %16, %17, %4, %1, %24, %9, %7
  %.0 = phi i1 [ false, %24 ], [ %12, %9 ], [ %8, %7 ], [ true, %1 ], [ true, %4 ], [ %.not, %17 ], [ %.not, %16 ]
  ret i1 %.0
}